target datalayout = "e-m:e-p270:32:32-p271:32:32-p272:64:64-i64:64-i128:128-f80:128-n8:16:32:64-S128"
target triple = "x86_64-pc-linux-gnu"

%struct.poly1305_state_internal_t = type { %union.anon, [5 x i32], [5 x i32], [5 x i32], [2 x i64], i64, i64, [32 x i8] }
%union.anon = type { [3 x i64], [16 x i8] }
%struct.__storeu_si128 = type { <2 x i64> }

; Function Attrs: alwaysinline nounwind
define internal ptr @memcpy.inline(ptr noalias nonnull %0, ptr noalias nonnull %1, i64 %2) #4 {
  %4 = alloca ptr, align 8
  %5 = alloca ptr, align 8
  %6 = alloca i64, align 8
  store ptr %0, ptr %4, align 8
  store ptr %1, ptr %5, align 8
  store i64 %2, ptr %6, align 8
  %7 = load ptr, ptr %4, align 8
  %8 = load ptr, ptr %5, align 8
  %9 = load i64, ptr %6, align 8
  %10 = load ptr, ptr %4, align 8
  %11 = call i64 @llvm.objectsize.i64.p0(ptr %10, i1 false, i1 true, i1 true)
  %12 = call ptr @__memcpy_chk(ptr noundef %7, ptr noundef %8, i64 noundef %9, i64 noundef %11) #11
  ret ptr %12
}

; Function Attrs: alwaysinline nounwind ssp uwtable
define internal void @_mm_storeu_si128(ptr noundef %0, <2 x i64> noundef %1) #3 {
  %3 = alloca ptr, align 8
  %4 = alloca <2 x i64>, align 16
  store ptr %0, ptr %3, align 8
  store <2 x i64> %1, ptr %4, align 16
  %5 = load <2 x i64>, ptr %4, align 16
  %6 = load ptr, ptr %3, align 8
  %7 = getelementptr inbounds nuw %struct.__storeu_si128, ptr %6, i32 0, i32 0
  store <2 x i64> %5, ptr %7, align 1
  ret void
}

; Function Attrs: alwaysinline nounwind ssp uwtable
define internal <2 x i64> @_mm_setzero_si128() #3 {
  %1 = alloca <2 x i64>, align 16
  store <2 x i64> zeroinitializer, ptr %1, align 16
  %2 = load <2 x i64>, ptr %1, align 16
  ret <2 x i64> %2
}

; Function Attrs: noinline nounwind ssp uwtable
define internal void @poly1305_init_ext(ptr noundef %0, ptr noundef %1, i64 noundef %2) #2 {
  %4 = alloca ptr, align 8
  %5 = alloca ptr, align 8
  %6 = alloca i64, align 8
  %7 = alloca ptr, align 8
  %8 = alloca [3 x i128], align 16
  %9 = alloca i64, align 8
  %10 = alloca i64, align 8
  %11 = alloca i64, align 8
  %12 = alloca i64, align 8
  %13 = alloca i64, align 8
  %14 = alloca i64, align 8
  %15 = alloca i64, align 8
  %16 = alloca i64, align 8
  %17 = alloca i64, align 8
  %18 = alloca i64, align 8
  %19 = alloca i64, align 8
  store ptr %0, ptr %4, align 8
  store ptr %1, ptr %5, align 8
  store i64 %2, ptr %6, align 8
  call void @llvm.lifetime.start.p0(i64 8, ptr %7) #11
  call void @llvm.lifetime.start.p0(i64 48, ptr %8) #11
  call void @llvm.lifetime.start.p0(i64 8, ptr %9) #11
  call void @llvm.lifetime.start.p0(i64 8, ptr %10) #11
  call void @llvm.lifetime.start.p0(i64 8, ptr %11) #11
  call void @llvm.lifetime.start.p0(i64 8, ptr %12) #11
  call void @llvm.lifetime.start.p0(i64 8, ptr %13) #11
  call void @llvm.lifetime.start.p0(i64 8, ptr %14) #11
  call void @llvm.lifetime.start.p0(i64 8, ptr %15) #11
  call void @llvm.lifetime.start.p0(i64 8, ptr %16) #11
  call void @llvm.lifetime.start.p0(i64 8, ptr %17) #11
  call void @llvm.lifetime.start.p0(i64 8, ptr %18) #11
  call void @llvm.lifetime.start.p0(i64 8, ptr %19) #11
  %20 = load i64, ptr %6, align 8
  %21 = icmp ne i64 %20, 0
  br i1 %21, label %23, label %22

22:                                               ; preds = %3
  store i64 -1, ptr %6, align 8
  br label %23

23:                                               ; preds = %22, %3
  %24 = load ptr, ptr %4, align 8
  %25 = getelementptr inbounds nuw %struct.poly1305_state_internal_t, ptr %24, i32 0, i32 0
  %26 = getelementptr [10 x i32], ptr %25, i64 0, i64 0
  %27 = call <2 x i64> @_mm_setzero_si128()
  call void @_mm_storeu_si128(ptr noundef %26, <2 x i64> noundef %27)
  %28 = load ptr, ptr %4, align 8
  %29 = getelementptr inbounds nuw %struct.poly1305_state_internal_t, ptr %28, i32 0, i32 0
  %30 = getelementptr [10 x i32], ptr %29, i64 0, i64 4
  %31 = call <2 x i64> @_mm_setzero_si128()
  call void @_mm_storeu_si128(ptr noundef %30, <2 x i64> noundef %31)
  %32 = load ptr, ptr %4, align 8
  %33 = getelementptr inbounds nuw %struct.poly1305_state_internal_t, ptr %32, i32 0, i32 0
  %34 = getelementptr [10 x i32], ptr %33, i64 0, i64 8
  %35 = call <2 x i64> @_mm_setzero_si128()
  call void @_mm_storeu_si128(ptr noundef %34, <2 x i64> noundef %35)
  %36 = load ptr, ptr %5, align 8
  %37 = call ptr @memcpy.inline(ptr noundef %17, ptr noundef %36, i64 noundef 8) #11
  %38 = load ptr, ptr %5, align 8
  %39 = getelementptr i8, ptr %38, i64 8
  %40 = call ptr @memcpy.inline(ptr noundef %18, ptr noundef %39, i64 noundef 8) #11
  %41 = load i64, ptr %17, align 8
  %42 = and i64 %41, 17575274610687
  store i64 %42, ptr %9, align 8
  %43 = load i64, ptr %17, align 8
  %44 = lshr i64 %43, 44
  store i64 %44, ptr %17, align 8
  %45 = load i64, ptr %18, align 8
  %46 = shl i64 %45, 20
  %47 = load i64, ptr %17, align 8
  %48 = or i64 %47, %46
  store i64 %48, ptr %17, align 8
  %49 = load i64, ptr %17, align 8
  %50 = and i64 %49, 17592181915647
  store i64 %50, ptr %10, align 8
  %51 = load i64, ptr %18, align 8
  %52 = lshr i64 %51, 24
  store i64 %52, ptr %18, align 8
  %53 = load i64, ptr %18, align 8
  %54 = and i64 %53, 68719475727
  store i64 %54, ptr %11, align 8
  %55 = load ptr, ptr %4, align 8
  %56 = getelementptr inbounds nuw %struct.poly1305_state_internal_t, ptr %55, i32 0, i32 1
  %57 = getelementptr inbounds [5 x i32], ptr %56, i64 0, i64 0
  store ptr %57, ptr %7, align 8
  %58 = load i64, ptr %9, align 8
  %59 = trunc i64 %58 to i32
  %60 = and i32 %59, 67108863
  %61 = load ptr, ptr %7, align 8
  %62 = getelementptr i32, ptr %61, i64 0
  store i32 %60, ptr %62, align 4
  %63 = load i64, ptr %9, align 8
  %64 = lshr i64 %63, 26
  %65 = load i64, ptr %10, align 8
  %66 = shl i64 %65, 18
  %67 = or i64 %64, %66
  %68 = trunc i64 %67 to i32
  %69 = and i32 %68, 67108863
  %70 = load ptr, ptr %7, align 8
  %71 = getelementptr i32, ptr %70, i64 1
  store i32 %69, ptr %71, align 4
  %72 = load i64, ptr %10, align 8
  %73 = lshr i64 %72, 8
  %74 = trunc i64 %73 to i32
  %75 = and i32 %74, 67108863
  %76 = load ptr, ptr %7, align 8
  %77 = getelementptr i32, ptr %76, i64 2
  store i32 %75, ptr %77, align 4
  %78 = load i64, ptr %10, align 8
  %79 = lshr i64 %78, 34
  %80 = load i64, ptr %11, align 8
  %81 = shl i64 %80, 10
  %82 = or i64 %79, %81
  %83 = trunc i64 %82 to i32
  %84 = and i32 %83, 67108863
  %85 = load ptr, ptr %7, align 8
  %86 = getelementptr i32, ptr %85, i64 3
  store i32 %84, ptr %86, align 4
  %87 = load i64, ptr %11, align 8
  %88 = lshr i64 %87, 16
  %89 = trunc i64 %88 to i32
  %90 = load ptr, ptr %7, align 8
  %91 = getelementptr i32, ptr %90, i64 4
  store i32 %89, ptr %91, align 4
  %92 = load ptr, ptr %4, align 8
  %93 = getelementptr inbounds nuw %struct.poly1305_state_internal_t, ptr %92, i32 0, i32 4
  %94 = getelementptr [2 x i64], ptr %93, i64 0, i64 0
  %95 = load ptr, ptr %5, align 8
  %96 = getelementptr i8, ptr %95, i64 16
  %97 = call ptr @memcpy.inline(ptr noundef %94, ptr noundef %96, i64 noundef 8) #11
  %98 = load ptr, ptr %4, align 8
  %99 = getelementptr inbounds nuw %struct.poly1305_state_internal_t, ptr %98, i32 0, i32 4
  %100 = getelementptr [2 x i64], ptr %99, i64 0, i64 1
  %101 = load ptr, ptr %5, align 8
  %102 = getelementptr i8, ptr %101, i64 24
  %103 = call ptr @memcpy.inline(ptr noundef %100, ptr noundef %102, i64 noundef 8) #11
  %104 = load i64, ptr %9, align 8
  store i64 %104, ptr %12, align 8
  %105 = load i64, ptr %10, align 8
  store i64 %105, ptr %13, align 8
  %106 = load i64, ptr %11, align 8
  store i64 %106, ptr %14, align 8
  store i64 0, ptr %19, align 8
  br label %107

107:                                              ; preds = %261, %23
  %108 = load i64, ptr %19, align 8
  %109 = icmp ult i64 %108, 2
  br i1 %109, label %110, label %264

110:                                              ; preds = %107
  %111 = load i64, ptr %19, align 8
  %112 = icmp eq i64 %111, 0
  br i1 %112, label %113, label %121

113:                                              ; preds = %110
  %114 = load ptr, ptr %4, align 8
  %115 = getelementptr inbounds nuw %struct.poly1305_state_internal_t, ptr %114, i32 0, i32 2
  %116 = getelementptr inbounds [5 x i32], ptr %115, i64 0, i64 0
  store ptr %116, ptr %7, align 8
  %117 = load i64, ptr %6, align 8
  %118 = icmp ule i64 %117, 16
  br i1 %118, label %119, label %120

119:                                              ; preds = %113
  br label %264

120:                                              ; preds = %113
  br label %133

121:                                              ; preds = %110
  %122 = load i64, ptr %19, align 8
  %123 = icmp eq i64 %122, 1
  br i1 %123, label %124, label %132

124:                                              ; preds = %121
  %125 = load ptr, ptr %4, align 8
  %126 = getelementptr inbounds nuw %struct.poly1305_state_internal_t, ptr %125, i32 0, i32 3
  %127 = getelementptr inbounds [5 x i32], ptr %126, i64 0, i64 0
  store ptr %127, ptr %7, align 8
  %128 = load i64, ptr %6, align 8
  %129 = icmp ult i64 %128, 96
  br i1 %129, label %130, label %131

130:                                              ; preds = %124
  br label %264

131:                                              ; preds = %124
  br label %132

132:                                              ; preds = %131, %121
  br label %133

133:                                              ; preds = %132, %120
  %134 = load i64, ptr %14, align 8
  %135 = mul i64 %134, 20
  store i64 %135, ptr %15, align 8
  %136 = load i64, ptr %12, align 8
  %137 = zext i64 %136 to i128
  %138 = load i64, ptr %12, align 8
  %139 = zext i64 %138 to i128
  %140 = mul i128 %137, %139
  %141 = load i64, ptr %13, align 8
  %142 = mul i64 %141, 2
  %143 = zext i64 %142 to i128
  %144 = load i64, ptr %15, align 8
  %145 = zext i64 %144 to i128
  %146 = mul i128 %143, %145
  %147 = add i128 %140, %146
  %148 = getelementptr [3 x i128], ptr %8, i64 0, i64 0
  store i128 %147, ptr %148, align 16
  %149 = load i64, ptr %14, align 8
  %150 = zext i64 %149 to i128
  %151 = load i64, ptr %15, align 8
  %152 = zext i64 %151 to i128
  %153 = mul i128 %150, %152
  %154 = load i64, ptr %12, align 8
  %155 = mul i64 %154, 2
  %156 = zext i64 %155 to i128
  %157 = load i64, ptr %13, align 8
  %158 = zext i64 %157 to i128
  %159 = mul i128 %156, %158
  %160 = add i128 %153, %159
  %161 = getelementptr [3 x i128], ptr %8, i64 0, i64 1
  store i128 %160, ptr %161, align 16
  %162 = load i64, ptr %13, align 8
  %163 = zext i64 %162 to i128
  %164 = load i64, ptr %13, align 8
  %165 = zext i64 %164 to i128
  %166 = mul i128 %163, %165
  %167 = load i64, ptr %14, align 8
  %168 = mul i64 %167, 2
  %169 = zext i64 %168 to i128
  %170 = load i64, ptr %12, align 8
  %171 = zext i64 %170 to i128
  %172 = mul i128 %169, %171
  %173 = add i128 %166, %172
  %174 = getelementptr [3 x i128], ptr %8, i64 0, i64 2
  store i128 %173, ptr %174, align 16
  %175 = getelementptr [3 x i128], ptr %8, i64 0, i64 0
  %176 = load i128, ptr %175, align 16
  %177 = trunc i128 %176 to i64
  %178 = and i64 %177, 17592186044415
  store i64 %178, ptr %12, align 8
  %179 = getelementptr [3 x i128], ptr %8, i64 0, i64 0
  %180 = load i128, ptr %179, align 16
  %181 = lshr i128 %180, 44
  %182 = trunc i128 %181 to i64
  store i64 %182, ptr %16, align 8
  %183 = load i64, ptr %16, align 8
  %184 = zext i64 %183 to i128
  %185 = getelementptr [3 x i128], ptr %8, i64 0, i64 1
  %186 = load i128, ptr %185, align 16
  %187 = add i128 %186, %184
  store i128 %187, ptr %185, align 16
  %188 = getelementptr [3 x i128], ptr %8, i64 0, i64 1
  %189 = load i128, ptr %188, align 16
  %190 = trunc i128 %189 to i64
  %191 = and i64 %190, 17592186044415
  store i64 %191, ptr %13, align 8
  %192 = getelementptr [3 x i128], ptr %8, i64 0, i64 1
  %193 = load i128, ptr %192, align 16
  %194 = lshr i128 %193, 44
  %195 = trunc i128 %194 to i64
  store i64 %195, ptr %16, align 8
  %196 = load i64, ptr %16, align 8
  %197 = zext i64 %196 to i128
  %198 = getelementptr [3 x i128], ptr %8, i64 0, i64 2
  %199 = load i128, ptr %198, align 16
  %200 = add i128 %199, %197
  store i128 %200, ptr %198, align 16
  %201 = getelementptr [3 x i128], ptr %8, i64 0, i64 2
  %202 = load i128, ptr %201, align 16
  %203 = trunc i128 %202 to i64
  %204 = and i64 %203, 4398046511103
  store i64 %204, ptr %14, align 8
  %205 = getelementptr [3 x i128], ptr %8, i64 0, i64 2
  %206 = load i128, ptr %205, align 16
  %207 = lshr i128 %206, 42
  %208 = trunc i128 %207 to i64
  store i64 %208, ptr %16, align 8
  %209 = load i64, ptr %16, align 8
  %210 = mul i64 %209, 5
  %211 = load i64, ptr %12, align 8
  %212 = add i64 %211, %210
  store i64 %212, ptr %12, align 8
  %213 = load i64, ptr %12, align 8
  %214 = lshr i64 %213, 44
  store i64 %214, ptr %16, align 8
  %215 = load i64, ptr %12, align 8
  %216 = and i64 %215, 17592186044415
  store i64 %216, ptr %12, align 8
  %217 = load i64, ptr %16, align 8
  %218 = load i64, ptr %13, align 8
  %219 = add i64 %218, %217
  store i64 %219, ptr %13, align 8
  %220 = load i64, ptr %13, align 8
  %221 = lshr i64 %220, 44
  store i64 %221, ptr %16, align 8
  %222 = load i64, ptr %13, align 8
  %223 = and i64 %222, 17592186044415
  store i64 %223, ptr %13, align 8
  %224 = load i64, ptr %16, align 8
  %225 = load i64, ptr %14, align 8
  %226 = add i64 %225, %224
  store i64 %226, ptr %14, align 8
  %227 = load i64, ptr %12, align 8
  %228 = trunc i64 %227 to i32
  %229 = and i32 %228, 67108863
  %230 = load ptr, ptr %7, align 8
  %231 = getelementptr i32, ptr %230, i64 0
  store i32 %229, ptr %231, align 4
  %232 = load i64, ptr %12, align 8
  %233 = lshr i64 %232, 26
  %234 = load i64, ptr %13, align 8
  %235 = shl i64 %234, 18
  %236 = or i64 %233, %235
  %237 = trunc i64 %236 to i32
  %238 = and i32 %237, 67108863
  %239 = load ptr, ptr %7, align 8
  %240 = getelementptr i32, ptr %239, i64 1
  store i32 %238, ptr %240, align 4
  %241 = load i64, ptr %13, align 8
  %242 = lshr i64 %241, 8
  %243 = trunc i64 %242 to i32
  %244 = and i32 %243, 67108863
  %245 = load ptr, ptr %7, align 8
  %246 = getelementptr i32, ptr %245, i64 2
  store i32 %244, ptr %246, align 4
  %247 = load i64, ptr %13, align 8
  %248 = lshr i64 %247, 34
  %249 = load i64, ptr %14, align 8
  %250 = shl i64 %249, 10
  %251 = or i64 %248, %250
  %252 = trunc i64 %251 to i32
  %253 = and i32 %252, 67108863
  %254 = load ptr, ptr %7, align 8
  %255 = getelementptr i32, ptr %254, i64 3
  store i32 %253, ptr %255, align 4
  %256 = load i64, ptr %14, align 8
  %257 = lshr i64 %256, 16
  %258 = trunc i64 %257 to i32
  %259 = load ptr, ptr %7, align 8
  %260 = getelementptr i32, ptr %259, i64 4
  store i32 %258, ptr %260, align 4
  br label %261

261:                                              ; preds = %133
  %262 = load i64, ptr %19, align 8
  %263 = add i64 %262, 1
  store i64 %263, ptr %19, align 8
  br label %107, !llvm.loop !4

264:                                              ; preds = %130, %119, %107
  %265 = load ptr, ptr %4, align 8
  %266 = getelementptr inbounds nuw %struct.poly1305_state_internal_t, ptr %265, i32 0, i32 5
  store i64 0, ptr %266, align 8
  %267 = load ptr, ptr %4, align 8
  %268 = getelementptr inbounds nuw %struct.poly1305_state_internal_t, ptr %267, i32 0, i32 6
  store i64 0, ptr %268, align 8
  call void @llvm.lifetime.end.p0(i64 8, ptr %19) #11
  call void @llvm.lifetime.end.p0(i64 8, ptr %18) #11
  call void @llvm.lifetime.end.p0(i64 8, ptr %17) #11
  call void @llvm.lifetime.end.p0(i64 8, ptr %16) #11
  call void @llvm.lifetime.end.p0(i64 8, ptr %15) #11
  call void @llvm.lifetime.end.p0(i64 8, ptr %14) #11
  call void @llvm.lifetime.end.p0(i64 8, ptr %13) #11
  call void @llvm.lifetime.end.p0(i64 8, ptr %12) #11
  call void @llvm.lifetime.end.p0(i64 8, ptr %11) #11
  call void @llvm.lifetime.end.p0(i64 8, ptr %10) #11
  call void @llvm.lifetime.end.p0(i64 8, ptr %9) #11
  call void @llvm.lifetime.end.p0(i64 48, ptr %8) #11
  call void @llvm.lifetime.end.p0(i64 8, ptr %7) #11
  ret void
}