; Function Attrs: nofree noinline nounwind ssp memory(argmem: readwrite) uwtable
define internal fastcc void @poly1305_init_ext(ptr noundef initializes((0, 60)) %0, ptr noundef readonly captures(none) %1, i64 noundef %2) unnamed_addr #4 {
  %.not = icmp eq i64 %2, 0
  %spec.store.select = select i1 %.not, i64 -1, i64 %2
  tail call void @llvm.memset.p0.i64(ptr noundef nonnull align 1 dereferenceable(48) %0, i8 0, i64 48, i1 false)
  %4 = load i64, ptr %1, align 1
  %5 = getelementptr i8, ptr %1, i64 8
  %6 = load i64, ptr %5, align 1
  %7 = and i64 %4, 17575274610687
  %8 = tail call i64 @llvm.fshl.i64(i64 %6, i64 %4, i64 20)
  %9 = and i64 %8, 17592181915647
  %10 = lshr i64 %6, 24
  %11 = and i64 %10, 68719475727
  %12 = getelementptr inbounds nuw i8, ptr %0, i64 40
  %13 = trunc i64 %4 to i32
  %14 = and i32 %13, 67108863
  store i32 %14, ptr %12, align 4
  %15 = lshr i64 %7, 26
  %16 = shl nuw nsw i64 %9, 18
  %17 = or disjoint i64 %16, %15
  %18 = trunc i64 %17 to i32
  %19 = and i32 %18, 67108611
  %20 = getelementptr i8, ptr %0, i64 44
  store i32 %19, ptr %20, align 4
  %21 = lshr i64 %8, 8
  %22 = trunc i64 %21 to i32
  %23 = and i32 %22, 67092735
  %24 = getelementptr i8, ptr %0, i64 48
  store i32 %23, ptr %24, align 4
  %25 = lshr i64 %9, 34
  %26 = shl nuw nsw i64 %10, 10
  %27 = or disjoint i64 %25, %26
  %28 = trunc i64 %27 to i32
  %29 = and i32 %28, 66076671
  %30 = getelementptr i8, ptr %0, i64 52
  store i32 %29, ptr %30, align 4
  %31 = lshr i64 %11, 16
  %32 = trunc nuw nsw i64 %31 to i32
  %33 = getelementptr i8, ptr %0, i64 56
  store i32 %32, ptr %33, align 4
  %34 = getelementptr inbounds nuw i8, ptr %0, i64 104
  %35 = getelementptr i8, ptr %1, i64 16
  %36 = load i64, ptr %35, align 1
  store i64 %36, ptr %34, align 1
  %37 = getelementptr i8, ptr %0, i64 112
  %38 = getelementptr i8, ptr %1, i64 24
  %39 = load i64, ptr %38, align 1
  store i64 %39, ptr %37, align 1
  %40 = getelementptr inbounds nuw i8, ptr %0, i64 80
  %41 = getelementptr inbounds nuw i8, ptr %0, i64 60
  %42 = icmp ult i64 %spec.store.select, 96
  %43 = icmp ult i64 %spec.store.select, 17
  br label %44

44:                                               ; preds = %3, %48
  %45 = phi i1 [ true, %3 ], [ false, %48 ]
  %.07883 = phi i64 [ %11, %3 ], [ %90, %48 ]
  %.07982 = phi i64 [ %9, %3 ], [ %89, %48 ]
  %.08081 = phi i64 [ %7, %3 ], [ %86, %48 ]
  br i1 %45, label %46, label %47

46:                                               ; preds = %44
  br i1 %43, label %112, label %48

47:                                               ; preds = %44
  br i1 %42, label %112, label %48

48:                                               ; preds = %47, %46
  %.1 = phi ptr [ %41, %46 ], [ %40, %47 ]
  %49 = mul nuw nsw i64 %.07883, 20
  %50 = zext nneg i64 %.08081 to i128
  %51 = mul nuw nsw i128 %50, %50
  %52 = shl nuw nsw i64 %.07982, 1
  %53 = zext nneg i64 %52 to i128
  %54 = zext nneg i64 %49 to i128
  %55 = mul nuw nsw i128 %54, %53
  %56 = add nuw nsw i128 %55, %51
  %57 = zext nneg i64 %.07883 to i128
  %58 = mul nuw nsw i128 %54, %57
  %59 = shl nuw nsw i64 %.08081, 1
  %60 = zext nneg i64 %59 to i128
  %61 = zext nneg i64 %.07982 to i128
  %62 = mul nuw nsw i128 %60, %61
  %63 = add nuw nsw i128 %58, %62
  %64 = mul nuw nsw i128 %61, %61
  %65 = shl nuw nsw i64 %.07883, 1
  %66 = zext nneg i64 %65 to i128
  %67 = mul nuw nsw i128 %66, %50
  %68 = add nuw nsw i128 %67, %64
  %69 = trunc i128 %56 to i64
  %70 = and i64 %69, 17592186044415
  %71 = lshr i128 %56, 44
  %72 = and i128 %71, 18446744073709551615
  %73 = add nuw nsw i128 %63, %72
  %74 = trunc i128 %73 to i64
  %75 = and i64 %74, 17592186044415
  %76 = lshr i128 %73, 44
  %77 = and i128 %76, 18446744073709551615
  %78 = add nuw nsw i128 %68, %77
  %79 = trunc i128 %78 to i64
  %80 = and i64 %79, 4398046511103
  %81 = lshr i128 %78, 42
  %82 = trunc nuw nsw i128 %81 to i64
  %83 = mul nuw nsw i64 %82, 5
  %84 = add nuw nsw i64 %83, %70
  %85 = lshr i64 %84, 44
  %86 = and i64 %84, 17592186044415
  %87 = add nuw nsw i64 %85, %75
  %88 = lshr i64 %87, 44
  %89 = and i64 %87, 17592186044415
  %90 = add nuw nsw i64 %88, %80
  %91 = trunc i64 %84 to i32
  %92 = and i32 %91, 67108863
  store i32 %92, ptr %.1, align 4
  %93 = lshr i64 %86, 26
  %94 = shl nuw nsw i64 %87, 18
  %95 = or disjoint i64 %94, %93
  %96 = trunc i64 %95 to i32
  %97 = and i32 %96, 67108863
  %98 = getelementptr i8, ptr %.1, i64 4
  store i32 %97, ptr %98, align 4
  %99 = lshr i64 %87, 8
  %100 = trunc i64 %99 to i32
  %101 = and i32 %100, 67108863
  %102 = getelementptr i8, ptr %.1, i64 8
  store i32 %101, ptr %102, align 4
  %103 = lshr i64 %89, 34
  %104 = shl nuw nsw i64 %90, 10
  %105 = or disjoint i64 %104, %103
  %106 = trunc i64 %105 to i32
  %107 = and i32 %106, 67108863
  %108 = getelementptr i8, ptr %.1, i64 12
  store i32 %107, ptr %108, align 4
  %109 = lshr i64 %90, 16
  %110 = trunc nuw nsw i64 %109 to i32
  %111 = getelementptr i8, ptr %.1, i64 16
  store i32 %110, ptr %111, align 4
  br i1 %45, label %44, label %112, !llvm.loop !7

112:                                              ; preds = %47, %46, %48
  %113 = getelementptr inbounds nuw i8, ptr %0, i64 120
  tail call void @llvm.memset.p0.i64(ptr noundef nonnull align 8 dereferenceable(16) %113, i8 0, i64 16, i1 false)
  ret void
}